; Function Attrs: mustprogress nounwind uwtable
define internal void @"_ZNSt17_Function_handlerIFvvEZN4llvm13DWARFVerifier18verifyUnitContentsERNS1_9DWARFUnitERSt3mapImSt3setImSt4lessImESaImEES8_SaISt4pairIKmSA_EEESG_E3$_0E9_M_invokeERKSt9_Any_data"(ptr nocapture noundef nonnull readonly align 8 dereferenceable(16) %0) #0 align 2 {
  %.val = load ptr, ptr %0, align 8
  %.val.val = load ptr, ptr %.val, align 8
  %2 = tail call noundef nonnull align 8 dereferenceable(48) ptr @_ZN4llvm9WithColor5errorERNS_11raw_ostreamENS_9StringRefEb(ptr noundef nonnull align 8 dereferenceable(48) %.val.val, ptr nonnull @.str.145, i64 0, i1 noundef zeroext false) #26
  %3 = getelementptr inbounds nuw i8, ptr %2, i64 24
  %4 = load ptr, ptr %3, align 8
  %5 = getelementptr inbounds nuw i8, ptr %2, i64 32
  %6 = load ptr, ptr %5, align 8
  %7 = ptrtoint ptr %4 to i64
  %8 = ptrtoint ptr %6 to i64
  %9 = sub i64 %7, %8
  %10 = icmp ult i64 %9, 30
  br i1 %10, label %11, label %13

11:                                               ; preds = %1
  %12 = tail call noundef nonnull align 8 dereferenceable(48) ptr @_ZN4llvm11raw_ostream5writeEPKcm(ptr noundef nonnull align 8 dereferenceable(48) %2, ptr noundef nonnull @.str.171, i64 noundef 30) #26
  br label %"_ZSt10__invoke_rIvRZN4llvm13DWARFVerifier18verifyUnitContentsERNS0_9DWARFUnitERSt3mapImSt3setImSt4lessImESaImEES7_SaISt4pairIKmS9_EEESF_E3$_0JEENSt9enable_ifIX16is_invocable_r_vIT_T0_DpT1_EESJ_E4typeEOSK_DpOSL_.exit"

13:                                               ; preds = %1
  tail call void @llvm.memcpy.p0.p0.i64(ptr noundef nonnull align 1 dereferenceable(30) %6, ptr noundef nonnull align 1 dereferenceable(30) @.str.171, i64 30, i1 false)
  %14 = load ptr, ptr %5, align 8
  %15 = getelementptr inbounds i8, ptr %14, i64 30
  store ptr %15, ptr %5, align 8
  br label %"_ZSt10__invoke_rIvRZN4llvm13DWARFVerifier18verifyUnitContentsERNS0_9DWARFUnitERSt3mapImSt3setImSt4lessImESaImEES7_SaISt4pairIKmS9_EEESF_E3$_0JEENSt9enable_ifIX16is_invocable_r_vIT_T0_DpT1_EESJ_E4typeEOSK_DpOSL_.exit"

"_ZSt10__invoke_rIvRZN4llvm13DWARFVerifier18verifyUnitContentsERNS0_9DWARFUnitERSt3mapImSt3setImSt4lessImESaImEES7_SaISt4pairIKmS9_EEESF_E3$_0JEENSt9enable_ifIX16is_invocable_r_vIT_T0_DpT1_EESJ_E4typeEOSK_DpOSL_.exit": ; preds = %11, %13
  ret void
}